; Function Attrs: mustprogress nounwind uwtable
define void @_ZN6google8protobuf2io19LimitingInputStreamD2Ev(ptr nocapture noundef nonnull readonly align 8 dereferenceable(32) %this) unnamed_addr #9 align 2 personality ptr @__gxx_personality_v0 {
entry:
  %limit_ = getelementptr inbounds i8, ptr %this, i64 16
  %0 = load i64, ptr %limit_, align 8
  %cmp = icmp slt i64 %0, 0
  br i1 %cmp, label %if.then, label %if.end

if.then:                                          ; preds = %entry
  %input_ = getelementptr inbounds i8, ptr %this, i64 8
  %1 = load ptr, ptr %input_, align 8
  %2 = trunc i64 %0 to i32
  %conv = sub i32 0, %2
  %vtable = load ptr, ptr %1, align 8
  %vfn = getelementptr inbounds i8, ptr %vtable, i64 24
  %3 = load ptr, ptr %vfn, align 8
  invoke void %3(ptr noundef nonnull align 8 dereferenceable(8) %1, i32 noundef %conv)
          to label %if.end unwind label %terminate.lpad

if.end:                                           ; preds = %if.then, %entry
  ret void

terminate.lpad:                                   ; preds = %if.then
  %4 = landingpad { ptr, i32 }
          catch ptr null
  %5 = extractvalue { ptr, i32 } %4, 0
  tail call void @__clang_call_terminate(ptr %5) #27
  unreachable
}